; Function Attrs: mustprogress uwtable
define hidden noundef nonnull align 8 dereferenceable(8) ptr @_ZN3satlsERSoRK10ptr_vectorINS_6clauseEE(ptr noundef nonnull returned align 8 dereferenceable(8) %out, ptr nocapture noundef nonnull readonly align 8 dereferenceable(8) %cs) local_unnamed_addr #8 {
entry:
  %0 = load ptr, ptr %cs, align 8
  %cmp.i.i = icmp eq ptr %0, null
  br i1 %cmp.i.i, label %for.end, label %_ZNK6vectorIPN3sat6clauseELb0EjE3endEv.exit

_ZNK6vectorIPN3sat6clauseELb0EjE3endEv.exit:      ; preds = %entry
  %arrayidx.i.i = getelementptr inbounds i8, ptr %0, i64 -4
  %1 = load i32, ptr %arrayidx.i.i, align 4
  %2 = zext i32 %1 to i64
  %add.ptr.i = getelementptr inbounds ptr, ptr %0, i64 %2
  %cmp.not5 = icmp eq i32 %1, 0
  br i1 %cmp.not5, label %for.end, label %for.body

for.body:                                         ; preds = %_ZNK6vectorIPN3sat6clauseELb0EjE3endEv.exit, %for.body
  %__begin1.06 = phi ptr [ %incdec.ptr, %for.body ], [ %0, %_ZNK6vectorIPN3sat6clauseELb0EjE3endEv.exit ]
  %3 = load ptr, ptr %__begin1.06, align 8
  %call2 = tail call noundef nonnull align 8 dereferenceable(8) ptr @_ZN3satlsERSoRKNS_6clauseE(ptr noundef nonnull align 8 dereferenceable(8) %out, ptr noundef nonnull align 4 dereferenceable(20) %3)
  %call3 = tail call noundef nonnull align 8 dereferenceable(8) ptr @_ZStlsISt11char_traitsIcEERSt13basic_ostreamIcT_ES5_PKc(ptr noundef nonnull align 8 dereferenceable(8) %out, ptr noundef nonnull @.str.8)
  %incdec.ptr = getelementptr inbounds i8, ptr %__begin1.06, i64 8
  %cmp.not = icmp eq ptr %incdec.ptr, %add.ptr.i
  br i1 %cmp.not, label %for.end, label %for.body

for.end:                                          ; preds = %for.body, %entry, %_ZNK6vectorIPN3sat6clauseELb0EjE3endEv.exit
  ret ptr %out
}